; Function Attrs: mustprogress uwtable
define dso_local void @_ZN23cmGlobalCommonGeneratorC2EP5cmake(ptr noundef nonnull align 8 dereferenceable(1880) %0, ptr noundef %1) unnamed_addr #3 align 2 personality ptr @__gxx_personality_v0 {
  tail call void @_ZN17cmGlobalGeneratorC2EP5cmake(ptr noundef nonnull align 8 dereferenceable(1778) %0, ptr noundef %1)
  store ptr getelementptr inbounds ({ [71 x ptr] }, ptr @_ZTV23cmGlobalCommonGenerator, i64 0, i32 0, i64 2), ptr %0, align 8
  %3 = getelementptr inbounds i8, ptr %0, i64 1792
  store i32 0, ptr %3, align 8
  %4 = getelementptr inbounds i8, ptr %0, i64 1800
  store ptr null, ptr %4, align 8
  %5 = getelementptr inbounds i8, ptr %0, i64 1808
  store ptr %3, ptr %5, align 8
  %6 = getelementptr inbounds i8, ptr %0, i64 1816
  store ptr %3, ptr %6, align 8
  %7 = getelementptr inbounds i8, ptr %0, i64 1824
  store i64 0, ptr %7, align 8
  %8 = getelementptr inbounds i8, ptr %0, i64 1840
  store i32 0, ptr %8, align 8
  %9 = getelementptr inbounds i8, ptr %0, i64 1848
  store ptr null, ptr %9, align 8
  %10 = getelementptr inbounds i8, ptr %0, i64 1856
  store ptr %8, ptr %10, align 8
  %11 = getelementptr inbounds i8, ptr %0, i64 1864
  store ptr %8, ptr %11, align 8
  %12 = getelementptr inbounds i8, ptr %0, i64 1872
  store i64 0, ptr %12, align 8
  ret void
}